; Function Attrs: nounwind uwtable
define internal void @_ZThn8_N4node9inspector12_GLOBAL__N_111ChannelImpl24sendProtocolNotificationESt10unique_ptrINS0_8protocol12SerializableESt14default_deleteIS5_EE(ptr nocapture noundef readonly %this, ptr nocapture noundef readonly %message) unnamed_addr #17 align 2 {
entry:
  %ref.tmp.i = alloca %"class.std::__cxx11::basic_string", align 8
  %0 = getelementptr inbounds i8, ptr %this, i64 -8
  call void @llvm.lifetime.start.p0(i64 32, ptr nonnull %ref.tmp.i)
  %1 = load ptr, ptr %message, align 8
  %vtable.i = load ptr, ptr %1, align 8
  %2 = load ptr, ptr %vtable.i, align 8
  call void %2(ptr nonnull sret(%"class.std::__cxx11::basic_string") align 8 %ref.tmp.i, ptr noundef nonnull align 8 dereferenceable(8) %1) #23
  call fastcc void @_ZN4node9inspector12_GLOBAL__N_111ChannelImpl21sendMessageToFrontendERKNSt7__cxx1112basic_stringIcSt11char_traitsIcESaIcEEE(ptr noundef nonnull align 8 dereferenceable(72) %0, ptr noundef nonnull align 8 dereferenceable(32) %ref.tmp.i)
  call void @_ZNSt7__cxx1112basic_stringIcSt11char_traitsIcESaIcEED1Ev(ptr noundef nonnull align 8 dereferenceable(32) %ref.tmp.i) #23
  call void @llvm.lifetime.end.p0(i64 32, ptr nonnull %ref.tmp.i)
  ret void
}